target datalayout = "e-m:e-p270:32:32-p271:32:32-p272:64:64-i64:64-i128:128-f80:128-n8:16:32:64-S128"
target triple = "x86_64-pc-linux-gnu"

%struct.Vec_Int_t_ = type { i32, i32, ptr }
%struct.Abc_Obj_t_ = type { ptr, ptr, i32, i32, %struct.Vec_Int_t_, %struct.Vec_Int_t_, %union.anon, %union.anon.0 }
%union.anon = type { ptr }
%union.anon.0 = type { ptr }

@.str.34 = private unnamed_addr constant [4 x i8] c"buf\00", align 1
@.str.35 = private unnamed_addr constant [4 x i8] c"inv\00", align 1
@.str.36 = private unnamed_addr constant [4 x i8] c"and\00", align 1
@.str.37 = private unnamed_addr constant [5 x i8] c"nand\00", align 1
@.str.38 = private unnamed_addr constant [3 x i8] c"or\00", align 1
@.str.39 = private unnamed_addr constant [4 x i8] c"nor\00", align 1
@.str.40 = private unnamed_addr constant [4 x i8] c"xor\00", align 1
@.str.41 = private unnamed_addr constant [5 x i8] c"xnor\00", align 1
@.str.42 = private unnamed_addr constant [5 x i8] c"zero\00", align 1
@.str.43 = private unnamed_addr constant [4 x i8] c"one\00", align 1

; Function Attrs: nounwind uwtable
define i32 @Abc_GateToType(ptr noundef %0) #0 {
  %2 = alloca i32, align 4
  %3 = alloca ptr, align 8
  %4 = alloca ptr, align 8
  store ptr %0, ptr %3, align 8
  %5 = load ptr, ptr %3, align 8
  %6 = getelementptr inbounds %struct.Abc_Obj_t_, ptr %5, i32 0, i32 6
  %7 = load ptr, ptr %6, align 8
  %8 = call ptr @Mio_GateReadName(ptr noundef %7)
  store ptr %8, ptr %4, align 8
  %9 = load ptr, ptr %4, align 8
  %10 = call i32 @strncmp(ptr noundef %9, ptr noundef @.str.34, i64 noundef 3) #12
  %11 = icmp ne i32 %10, 0
  br i1 %11, label %13, label %12

12:                                               ; preds = %1
  store i32 11, ptr %2, align 4
  br label %59

13:                                               ; preds = %1
  %14 = load ptr, ptr %4, align 8
  %15 = call i32 @strncmp(ptr noundef %14, ptr noundef @.str.35, i64 noundef 3) #12
  %16 = icmp ne i32 %15, 0
  br i1 %16, label %18, label %17

17:                                               ; preds = %13
  store i32 12, ptr %2, align 4
  br label %59

18:                                               ; preds = %13
  %19 = load ptr, ptr %4, align 8
  %20 = call i32 @strncmp(ptr noundef %19, ptr noundef @.str.36, i64 noundef 3) #12
  %21 = icmp ne i32 %20, 0
  br i1 %21, label %23, label %22

22:                                               ; preds = %18
  store i32 13, ptr %2, align 4
  br label %59

23:                                               ; preds = %18
  %24 = load ptr, ptr %4, align 8
  %25 = call i32 @strncmp(ptr noundef %24, ptr noundef @.str.37, i64 noundef 4) #12
  %26 = icmp ne i32 %25, 0
  br i1 %26, label %28, label %27

27:                                               ; preds = %23
  store i32 14, ptr %2, align 4
  br label %59

28:                                               ; preds = %23
  %29 = load ptr, ptr %4, align 8
  %30 = call i32 @strncmp(ptr noundef %29, ptr noundef @.str.38, i64 noundef 2) #12
  %31 = icmp ne i32 %30, 0
  br i1 %31, label %33, label %32

32:                                               ; preds = %28
  store i32 15, ptr %2, align 4
  br label %59

33:                                               ; preds = %28
  %34 = load ptr, ptr %4, align 8
  %35 = call i32 @strncmp(ptr noundef %34, ptr noundef @.str.39, i64 noundef 3) #12
  %36 = icmp ne i32 %35, 0
  br i1 %36, label %38, label %37

37:                                               ; preds = %33
  store i32 16, ptr %2, align 4
  br label %59

38:                                               ; preds = %33
  %39 = load ptr, ptr %4, align 8
  %40 = call i32 @strncmp(ptr noundef %39, ptr noundef @.str.40, i64 noundef 3) #12
  %41 = icmp ne i32 %40, 0
  br i1 %41, label %43, label %42

42:                                               ; preds = %38
  store i32 17, ptr %2, align 4
  br label %59

43:                                               ; preds = %38
  %44 = load ptr, ptr %4, align 8
  %45 = call i32 @strncmp(ptr noundef %44, ptr noundef @.str.41, i64 noundef 4) #12
  %46 = icmp ne i32 %45, 0
  br i1 %46, label %48, label %47

47:                                               ; preds = %43
  store i32 18, ptr %2, align 4
  br label %59

48:                                               ; preds = %43
  %49 = load ptr, ptr %4, align 8
  %50 = call i32 @strncmp(ptr noundef %49, ptr noundef @.str.42, i64 noundef 4) #12
  %51 = icmp ne i32 %50, 0
  br i1 %51, label %53, label %52

52:                                               ; preds = %48
  store i32 7, ptr %2, align 4
  br label %59

53:                                               ; preds = %48
  %54 = load ptr, ptr %4, align 8
  %55 = call i32 @strncmp(ptr noundef %54, ptr noundef @.str.43, i64 noundef 3) #12
  %56 = icmp ne i32 %55, 0
  br i1 %56, label %58, label %57

57:                                               ; preds = %53
  store i32 8, ptr %2, align 4
  br label %59

58:                                               ; preds = %53
  store i32 -1, ptr %2, align 4
  br label %59

59:                                               ; preds = %58, %57, %52, %47, %42, %37, %32, %27, %22, %17, %12
  %60 = load i32, ptr %2, align 4
  ret i32 %60
}