; Function Attrs: nounwind uwtable
define range(i32 -1, 19) i32 @Abc_GateToType(ptr noundef readonly captures(none) %0) local_unnamed_addr #0 {
sub_0:
  %1 = getelementptr inbounds nuw i8, ptr %0, i64 56
  %2 = load ptr, ptr %1, align 8
  %3 = tail call ptr @Mio_GateReadName(ptr noundef %2) #28
  %4 = load i8, ptr %3, align 1
  switch i8 %4, label %.tail25.thread [
    i8 98, label %sub_1
    i8 105, label %sub_122
    i8 97, label %sub_127
  ]

sub_1:                                            ; preds = %sub_0
  %5 = getelementptr inbounds nuw i8, ptr %3, i64 1
  %6 = load i8, ptr %5, align 1
  %.not50 = icmp eq i8 %6, 117
  br i1 %.not50, label %.tail, label %.tail25.thread

.tail:                                            ; preds = %sub_1
  %7 = getelementptr inbounds nuw i8, ptr %3, i64 2
  %8 = load i8, ptr %7, align 1
  %9 = icmp eq i8 %8, 102
  br i1 %9, label %.tail44, label %.tail25.thread

sub_122:                                          ; preds = %sub_0
  %10 = getelementptr inbounds nuw i8, ptr %3, i64 1
  %11 = load i8, ptr %10, align 1
  %.not52 = icmp eq i8 %11, 110
  br i1 %.not52, label %.tail20, label %.tail25.thread

.tail20:                                          ; preds = %sub_122
  %12 = getelementptr inbounds nuw i8, ptr %3, i64 2
  %13 = load i8, ptr %12, align 1
  %14 = icmp eq i8 %13, 118
  br i1 %14, label %.tail44, label %.tail25.thread

sub_127:                                          ; preds = %sub_0
  %15 = getelementptr inbounds nuw i8, ptr %3, i64 1
  %16 = load i8, ptr %15, align 1
  %.not54 = icmp eq i8 %16, 110
  br i1 %.not54, label %.tail25, label %.tail25.thread

.tail25:                                          ; preds = %sub_127
  %17 = getelementptr inbounds nuw i8, ptr %3, i64 2
  %18 = load i8, ptr %17, align 1
  %19 = icmp eq i8 %18, 100
  br i1 %19, label %.tail44, label %.thread

.tail25.thread:                                   ; preds = %sub_0, %.tail, %sub_1, %sub_122, %.tail20, %sub_127
  %20 = tail call i32 @strncmp(ptr noundef nonnull dereferenceable(1) %3, ptr noundef nonnull dereferenceable(5) @.str.37, i64 noundef 4) #31
  %.not13 = icmp eq i32 %20, 0
  br i1 %.not13, label %.tail44, label %sub_031

.thread:                                          ; preds = %.tail25
  %21 = tail call i32 @strncmp(ptr noundef nonnull dereferenceable(1) %3, ptr noundef nonnull dereferenceable(5) @.str.37, i64 noundef 4) #31
  %.not1371 = icmp eq i32 %21, 0
  br i1 %.not1371, label %.tail44, label %.tail39.thread

sub_031:                                          ; preds = %.tail25.thread
  switch i8 %4, label %.tail39.thread [
    i8 111, label %.tail30
    i8 110, label %sub_136
    i8 120, label %sub_141
  ]

.tail30:                                          ; preds = %sub_031
  %22 = getelementptr inbounds nuw i8, ptr %3, i64 1
  %23 = load i8, ptr %22, align 1
  %24 = icmp eq i8 %23, 114
  br i1 %24, label %.tail44, label %.tail39.thread

sub_136:                                          ; preds = %sub_031
  %25 = getelementptr inbounds nuw i8, ptr %3, i64 1
  %26 = load i8, ptr %25, align 1
  %.not57 = icmp eq i8 %26, 111
  br i1 %.not57, label %.tail34, label %.tail39.thread

.tail34:                                          ; preds = %sub_136
  %27 = getelementptr inbounds nuw i8, ptr %3, i64 2
  %28 = load i8, ptr %27, align 1
  %29 = icmp eq i8 %28, 114
  br i1 %29, label %.tail44, label %.tail39.thread

sub_141:                                          ; preds = %sub_031
  %30 = getelementptr inbounds nuw i8, ptr %3, i64 1
  %31 = load i8, ptr %30, align 1
  %.not59 = icmp eq i8 %31, 111
  br i1 %.not59, label %.tail39, label %.tail39.thread

.tail39:                                          ; preds = %sub_141
  %32 = getelementptr inbounds nuw i8, ptr %3, i64 2
  %33 = load i8, ptr %32, align 1
  %34 = icmp eq i8 %33, 114
  br i1 %34, label %.tail44, label %.tail39.thread

.tail39.thread:                                   ; preds = %sub_031, %.thread, %.tail30, %sub_136, %.tail34, %sub_141, %.tail39
  %.not55737679858894.not = phi i1 [ true, %.tail39 ], [ true, %sub_141 ], [ true, %.tail34 ], [ true, %sub_136 ], [ false, %.tail30 ], [ true, %.thread ], [ true, %sub_031 ]
  %35 = tail call i32 @strncmp(ptr noundef nonnull dereferenceable(1) %3, ptr noundef nonnull dereferenceable(5) @.str.41, i64 noundef 4) #31
  %.not17 = icmp eq i32 %35, 0
  br i1 %.not17, label %.tail44, label %36

36:                                               ; preds = %.tail39.thread
  %37 = tail call i32 @strncmp(ptr noundef nonnull dereferenceable(1) %3, ptr noundef nonnull dereferenceable(5) @.str.42, i64 noundef 4) #31
  %.not18 = icmp eq i32 %37, 0
  %brmerge = or i1 %.not18, %.not55737679858894.not
  %.mux = select i1 %.not18, i32 7, i32 -1
  br i1 %brmerge, label %.tail44, label %sub_146

sub_146:                                          ; preds = %36
  %38 = getelementptr inbounds nuw i8, ptr %3, i64 1
  %39 = load i8, ptr %38, align 1
  %.not61 = icmp eq i8 %39, 110
  br i1 %.not61, label %sub_247, label %.tail44

sub_247:                                          ; preds = %sub_146
  %40 = getelementptr inbounds nuw i8, ptr %3, i64 2
  %41 = load i8, ptr %40, align 1
  %42 = icmp eq i8 %41, 101
  %43 = select i1 %42, i32 8, i32 -1
  br label %.tail44

.tail44:                                          ; preds = %36, %sub_247, %sub_146, %.thread, %.tail39.thread, %.tail39, %.tail34, %.tail30, %.tail25.thread, %.tail25, %.tail20, %.tail
  %.0 = phi i32 [ 11, %.tail ], [ 12, %.tail20 ], [ 13, %.tail25 ], [ 14, %.tail25.thread ], [ 15, %.tail30 ], [ 16, %.tail34 ], [ 17, %.tail39 ], [ 18, %.tail39.thread ], [ %.mux, %36 ], [ 14, %.thread ], [ -1, %sub_146 ], [ %43, %sub_247 ]
  ret i32 %.0
}